; Function Attrs: mustprogress uwtable
define dso_local void @_ZNK4pbrt15TabulatedBSSRDF8ToStringB5cxx11Ev(ptr dead_on_unwind noalias writable sret(%"class.std::__cxx11::basic_string") align 8 %0, ptr noundef nonnull align 8 dereferenceable(80) %1) local_unnamed_addr #2 align 2 personality ptr @__gxx_personality_v0 {
  %3 = getelementptr inbounds nuw i8, ptr %1, i64 36
  %4 = getelementptr inbounds nuw i8, ptr %1, i64 24
  %5 = getelementptr inbounds nuw i8, ptr %1, i64 40
  %6 = getelementptr inbounds nuw i8, ptr %1, i64 56
  %7 = getelementptr inbounds nuw i8, ptr %1, i64 72
  %8 = load ptr, ptr %7, align 8, !tbaa !4
  %9 = getelementptr inbounds nuw i8, ptr %0, i64 16
  store ptr %9, ptr %0, align 8, !tbaa !19, !alias.scope !22
  %10 = getelementptr inbounds nuw i8, ptr %0, i64 8
  store i64 0, ptr %10, align 8, !tbaa !25, !alias.scope !22
  store i8 0, ptr %9, align 8, !tbaa !28, !alias.scope !22
  invoke void @_ZN4pbrt6detail21stringPrintfRecursiveIRKNS_6Point3IfEEJRKfRKNS_7Normal3IfEERKNS_15SampledSpectrumESE_RKNS_11BSSRDFTableEEEEvPNSt7__cxx1112basic_stringIcSt11char_traitsIcESaIcEEEPKcOT_DpOT0_(ptr noundef nonnull align 8 %0, ptr noundef nonnull @.str, ptr noundef nonnull align 4 dereferenceable(12) %1, ptr noundef nonnull align 4 dereferenceable(4) %3, ptr noundef nonnull align 4 dereferenceable(12) %4, ptr noundef nonnull align 4 dereferenceable(16) %5, ptr noundef nonnull align 4 dereferenceable(16) %6, ptr noundef nonnull align 8 dereferenceable(160) %8)
          to label %_ZN4pbrt12StringPrintfIJRKNS_6Point3IfEERKfRKNS_7Normal3IfEERKNS_15SampledSpectrumESD_RKNS_11BSSRDFTableEEEENSt7__cxx1112basic_stringIcSt11char_traitsIcESaIcEEEPKcDpOT_.exit unwind label %11

11:                                               ; preds = %2
  %12 = landingpad { ptr, i32 }
          cleanup
  %13 = load ptr, ptr %0, align 8, !tbaa !29, !alias.scope !22
  %14 = icmp eq ptr %13, %9
  br i1 %14, label %_ZNKSt7__cxx1112basic_stringIcSt11char_traitsIcESaIcEE11_M_is_localEv.exit.thread.i.i.i, label %_ZNKSt7__cxx1112basic_stringIcSt11char_traitsIcESaIcEE11_M_is_localEv.exit.i.i.i

_ZNKSt7__cxx1112basic_stringIcSt11char_traitsIcESaIcEE11_M_is_localEv.exit.thread.i.i.i: ; preds = %11
  %15 = load i64, ptr %10, align 8, !tbaa !25, !alias.scope !22
  %16 = icmp ult i64 %15, 16
  tail call void @llvm.assume(i1 %16)
  br label %_ZNSt7__cxx1112basic_stringIcSt11char_traitsIcESaIcEED2Ev.exit.i

_ZNKSt7__cxx1112basic_stringIcSt11char_traitsIcESaIcEE11_M_is_localEv.exit.i.i.i: ; preds = %11
  %17 = load i64, ptr %9, align 8, !tbaa !28, !alias.scope !22
  %18 = add i64 %17, 1
  tail call void @_ZdlPvm(ptr noundef %13, i64 noundef %18) #23
  br label %_ZNSt7__cxx1112basic_stringIcSt11char_traitsIcESaIcEED2Ev.exit.i

_ZNSt7__cxx1112basic_stringIcSt11char_traitsIcESaIcEED2Ev.exit.i: ; preds = %_ZNKSt7__cxx1112basic_stringIcSt11char_traitsIcESaIcEE11_M_is_localEv.exit.i.i.i, %_ZNKSt7__cxx1112basic_stringIcSt11char_traitsIcESaIcEE11_M_is_localEv.exit.thread.i.i.i
  resume { ptr, i32 } %12

_ZN4pbrt12StringPrintfIJRKNS_6Point3IfEERKfRKNS_7Normal3IfEERKNS_15SampledSpectrumESD_RKNS_11BSSRDFTableEEEENSt7__cxx1112basic_stringIcSt11char_traitsIcESaIcEEEPKcDpOT_.exit: ; preds = %2
  ret void
}